; Function Attrs: nounwind uwtable
define internal fastcc void @patchlistaux(ptr noundef readonly captures(none) %0, i32 noundef %1, i32 noundef %2, i32 noundef %3, i32 noundef %4) unnamed_addr #0 {
  %.not19 = icmp eq i32 %1, -1
  br i1 %.not19, label %._crit_edge, label %.lr.ph

.lr.ph:                                           ; preds = %5
  %6 = getelementptr inbounds nuw i8, ptr %0, i64 24
  %.not13.i = icmp eq i32 %3, 255
  %7 = shl i32 %3, 6
  %8 = and i32 %7, 16320
  br label %9

9:                                                ; preds = %.lr.ph, %fixjump.exit16
  %.020 = phi i32 [ %1, %.lr.ph ], [ %18, %fixjump.exit16 ]
  %.val = load ptr, ptr %0, align 8, !tbaa !19
  %10 = getelementptr i8, ptr %.val, i64 24
  %.val.val = load ptr, ptr %10, align 8, !tbaa !20
  %11 = sext i32 %.020 to i64
  %12 = getelementptr inbounds i32, ptr %.val.val, i64 %11
  %13 = load i32, ptr %12, align 4, !tbaa !29
  %14 = lshr i32 %13, 14
  %15 = add nsw i32 %14, -131071
  %16 = icmp eq i32 %15, -1
  %17 = add nuw nsw i32 %.020, 1
  %18 = add nsw i32 %17, %15
  %19 = icmp sgt i32 %.020, 0
  br i1 %19, label %20, label %27

20:                                               ; preds = %9
  %21 = getelementptr inbounds i8, ptr %12, i64 -4
  %22 = load i32, ptr %21, align 4, !tbaa !29
  %23 = and i32 %22, 63
  %24 = zext nneg i32 %23 to i64
  %25 = getelementptr inbounds nuw [38 x i8], ptr @luaP_opmodes, i64 0, i64 %24
  %26 = load i8, ptr %25, align 1, !tbaa !39
  %.not.i.i = icmp sgt i8 %26, -1
  br i1 %.not.i.i, label %27, label %getjumpcontrol.exit.i

27:                                               ; preds = %20, %9
  br label %getjumpcontrol.exit.i

getjumpcontrol.exit.i:                            ; preds = %27, %20
  %28 = phi i32 [ %13, %27 ], [ %22, %20 ]
  %.0.i.i = phi ptr [ %12, %27 ], [ %21, %20 ]
  %29 = and i32 %28, 63
  %.not.i = icmp eq i32 %29, 27
  br i1 %.not.i, label %30, label %44

30:                                               ; preds = %getjumpcontrol.exit.i
  %31 = lshr i32 %28, 23
  %.not14.i = icmp eq i32 %3, %31
  %or.cond.i = or i1 %.not13.i, %.not14.i
  br i1 %or.cond.i, label %35, label %32

32:                                               ; preds = %30
  %33 = and i32 %28, -16357
  %34 = or disjoint i32 %33, %8
  br label %40

35:                                               ; preds = %30
  %36 = lshr i32 %28, 17
  %37 = and i32 %36, 32704
  %38 = and i32 %28, 8372250
  %39 = or i32 %37, %38
  br label %40

40:                                               ; preds = %35, %32
  %storemerge.i = phi i32 [ %39, %35 ], [ %34, %32 ]
  store i32 %storemerge.i, ptr %.0.i.i, align 4, !tbaa !29
  %.neg.i = xor i32 %.020, -1
  %41 = add i32 %2, %.neg.i
  %42 = tail call i32 @llvm.abs.i32(i32 %41, i1 true)
  %43 = icmp samesign ugt i32 %42, 131071
  br i1 %43, label %fixjump.exit16.sink.split.sink.split, label %fixjump.exit16.sink.split

44:                                               ; preds = %getjumpcontrol.exit.i
  %.neg.i15 = xor i32 %.020, -1
  %45 = add i32 %4, %.neg.i15
  %46 = tail call i32 @llvm.abs.i32(i32 %45, i1 true)
  %47 = icmp samesign ugt i32 %46, 131071
  br i1 %47, label %fixjump.exit16.sink.split.sink.split, label %fixjump.exit16

fixjump.exit16.sink.split.sink.split:             ; preds = %44, %40
  %.sink23.ph.ph = phi i32 [ %41, %40 ], [ %45, %44 ]
  %48 = load ptr, ptr %6, align 8, !tbaa !30
  tail call void @luaX_syntaxerror(ptr noundef %48, ptr noundef nonnull @.str.1) #8
  br label %fixjump.exit16.sink.split

fixjump.exit16.sink.split:                        ; preds = %fixjump.exit16.sink.split.sink.split, %40
  %.sink23.ph = phi i32 [ %41, %40 ], [ %.sink23.ph.ph, %fixjump.exit16.sink.split.sink.split ]
  %.pre = load i32, ptr %12, align 4, !tbaa !29
  br label %fixjump.exit16

fixjump.exit16:                                   ; preds = %fixjump.exit16.sink.split, %44
  %.sink24 = phi i32 [ %13, %44 ], [ %.pre, %fixjump.exit16.sink.split ]
  %.sink23 = phi i32 [ %45, %44 ], [ %.sink23.ph, %fixjump.exit16.sink.split ]
  %49 = and i32 %.sink24, 16383
  %50 = shl i32 %.sink23, 14
  %51 = add i32 %50, 2147467264
  %52 = or disjoint i32 %49, %51
  store i32 %52, ptr %12, align 4, !tbaa !29
  %.not25 = icmp eq i32 %18, -1
  %.not = select i1 %16, i1 true, i1 %.not25
  br i1 %.not, label %._crit_edge, label %9, !llvm.loop !40

._crit_edge:                                      ; preds = %fixjump.exit16, %5
  ret void
}